target datalayout = "e-m:e-p270:32:32-p271:32:32-p272:64:64-i64:64-i128:128-f80:128-n8:16:32:64-S128"
target triple = "x86_64-pc-linux-gnu"

%struct.mcclellan = type { i16, i32, i16, i16, i32, i32, i32, i16, i16, i16, i16, i8, i8, i8, i8, [256 x i8], i32, i32, i32, i32 }
%struct.mstate_aux = type { i32, i32, i16, i32 }
%struct.mq = type { ptr, i32, i32, ptr, ptr, i64, ptr, i64, ptr, i64, ptr, i8, ptr, ptr, [10 x %struct.mq_item] }
%struct.mq_item = type { i32, i64, i64 }
%struct.report_list = type { i32, [0 x i32] }

; Function Attrs: nounwind uwtable
define internal signext i8 @mcclellanHasAccept(ptr noundef %0, ptr noundef %1, i32 noundef %2) #0 {
  %4 = alloca i8, align 1
  %5 = alloca ptr, align 8
  %6 = alloca ptr, align 8
  %7 = alloca i32, align 4
  %8 = alloca ptr, align 8
  %9 = alloca i32, align 4
  %10 = alloca i32, align 4
  store ptr %0, ptr %5, align 8
  store ptr %1, ptr %6, align 8
  store i32 %2, ptr %7, align 4
  %11 = load ptr, ptr %6, align 8
  %12 = getelementptr inbounds nuw %struct.mstate_aux, ptr %11, i32 0, i32 0
  %13 = load i32, ptr %12, align 4
  %14 = icmp ne i32 %13, 0
  br i1 %14, label %16, label %15

15:                                               ; preds = %3
  store i8 0, ptr %4, align 1
  br label %52

16:                                               ; preds = %3
  call void @llvm.lifetime.start.p0(i64 8, ptr %8) #10
  %17 = load ptr, ptr %5, align 8
  %18 = load ptr, ptr %6, align 8
  %19 = getelementptr inbounds nuw %struct.mstate_aux, ptr %18, i32 0, i32 0
  %20 = load i32, ptr %19, align 4
  %21 = zext i32 %20 to i64
  %22 = getelementptr inbounds nuw i8, ptr %17, i64 %21
  %23 = getelementptr inbounds i8, ptr %22, i64 -64
  store ptr %23, ptr %8, align 8
  br label %24

24:                                               ; preds = %16
  br label %25

25:                                               ; preds = %24
  br label %26

26:                                               ; preds = %25
  call void @llvm.lifetime.start.p0(i64 4, ptr %9) #10
  store i32 0, ptr %9, align 4
  br label %27

27:                                               ; preds = %45, %26
  %28 = load i32, ptr %9, align 4
  %29 = load ptr, ptr %8, align 8
  %30 = getelementptr inbounds nuw %struct.report_list, ptr %29, i32 0, i32 0
  %31 = load i32, ptr %30, align 4
  %32 = icmp ult i32 %28, %31
  br i1 %32, label %34, label %33

33:                                               ; preds = %27
  store i32 4, ptr %10, align 4
  br label %48

34:                                               ; preds = %27
  %35 = load ptr, ptr %8, align 8
  %36 = getelementptr inbounds nuw %struct.report_list, ptr %35, i32 0, i32 1
  %37 = load i32, ptr %9, align 4
  %38 = zext i32 %37 to i64
  %39 = getelementptr inbounds nuw [0 x i32], ptr %36, i64 0, i64 %38
  %40 = load i32, ptr %39, align 4
  %41 = load i32, ptr %7, align 4
  %42 = icmp eq i32 %40, %41
  br i1 %42, label %43, label %44

43:                                               ; preds = %34
  store i8 1, ptr %4, align 1
  store i32 1, ptr %10, align 4
  br label %48

44:                                               ; preds = %34
  br label %45

45:                                               ; preds = %44
  %46 = load i32, ptr %9, align 4
  %47 = add i32 %46, 1
  store i32 %47, ptr %9, align 4
  br label %27

48:                                               ; preds = %43, %33
  call void @llvm.lifetime.end.p0(i64 4, ptr %9) #10
  %49 = load i32, ptr %10, align 4
  switch i32 %49, label %51 [
    i32 4, label %50
  ]

50:                                               ; preds = %48
  store i8 0, ptr %4, align 1
  store i32 1, ptr %10, align 4
  br label %51

51:                                               ; preds = %50, %48
  call void @llvm.lifetime.end.p0(i64 8, ptr %8) #10
  br label %52

52:                                               ; preds = %51, %15
  %53 = load i8, ptr %4, align 1
  ret i8 %53
}

; Function Attrs: alwaysinline nounwind uwtable
define internal ptr @get_aux(ptr noundef %0, i32 noundef %1) #2 {
  %3 = alloca ptr, align 8
  %4 = alloca i32, align 4
  %5 = alloca ptr, align 8
  %6 = alloca ptr, align 8
  store ptr %0, ptr %3, align 8
  store i32 %1, ptr %4, align 4
  call void @llvm.lifetime.start.p0(i64 8, ptr %5) #10
  %7 = load ptr, ptr %3, align 8
  %8 = getelementptr inbounds i8, ptr %7, i64 -64
  store ptr %8, ptr %5, align 8
  call void @llvm.lifetime.start.p0(i64 8, ptr %6) #10
  %9 = load i32, ptr %4, align 4
  %10 = load ptr, ptr %5, align 8
  %11 = load ptr, ptr %3, align 8
  %12 = getelementptr inbounds nuw %struct.mcclellan, ptr %11, i32 0, i32 4
  %13 = load i32, ptr %12, align 4
  %14 = zext i32 %13 to i64
  %15 = getelementptr inbounds nuw i8, ptr %10, i64 %14
  %16 = zext i32 %9 to i64
  %17 = getelementptr inbounds nuw %struct.mstate_aux, ptr %15, i64 %16
  store ptr %17, ptr %6, align 8
  %18 = load ptr, ptr %6, align 8
  call void @llvm.lifetime.end.p0(i64 8, ptr %6) #10
  call void @llvm.lifetime.end.p0(i64 8, ptr %5) #10
  ret ptr %18
}

; Function Attrs: nounwind uwtable
define hidden signext i8 @nfaExecMcClellan16_inAccept(ptr noundef %0, i32 noundef %1, ptr noundef %2) #0 {
  %4 = alloca ptr, align 8
  %5 = alloca i32, align 4
  %6 = alloca ptr, align 8
  %7 = alloca ptr, align 8
  %8 = alloca i16, align 2
  store ptr %0, ptr %4, align 8
  store i32 %1, ptr %5, align 4
  store ptr %2, ptr %6, align 8
  call void @llvm.lifetime.start.p0(i64 8, ptr %7) #10
  %9 = load ptr, ptr %4, align 8
  %10 = getelementptr inbounds nuw i8, ptr %9, i64 64
  store ptr %10, ptr %7, align 8
  call void @llvm.lifetime.start.p0(i64 2, ptr %8) #10
  %11 = load ptr, ptr %6, align 8
  %12 = getelementptr inbounds nuw %struct.mq, ptr %11, i32 0, i32 3
  %13 = load ptr, ptr %12, align 8
  %14 = load i16, ptr %13, align 2
  store i16 %14, ptr %8, align 2
  br label %15

15:                                               ; preds = %3
  br label %16

16:                                               ; preds = %15
  br label %17

17:                                               ; preds = %16
  %18 = load ptr, ptr %7, align 8
  %19 = getelementptr inbounds nuw %struct.mcclellan, ptr %18, i32 0, i32 14
  %20 = load i8, ptr %19, align 1
  %21 = zext i8 %20 to i32
  %22 = icmp eq i32 %21, 1
  br i1 %22, label %23, label %32

23:                                               ; preds = %17
  %24 = load i16, ptr %8, align 2
  %25 = zext i16 %24 to i32
  %26 = load ptr, ptr %7, align 8
  %27 = getelementptr inbounds nuw %struct.mcclellan, ptr %26, i32 0, i32 10
  %28 = load i16, ptr %27, align 2
  %29 = zext i16 %28 to i32
  %30 = icmp sge i32 %25, %29
  br i1 %30, label %31, label %32

31:                                               ; preds = %23
  br label %41

32:                                               ; preds = %23, %17
  %33 = load ptr, ptr %7, align 8
  %34 = load ptr, ptr %7, align 8
  %35 = load i16, ptr %8, align 2
  %36 = zext i16 %35 to i32
  %37 = call ptr @get_aux(ptr noundef %34, i32 noundef %36)
  %38 = load i32, ptr %5, align 4
  %39 = call signext i8 @mcclellanHasAccept(ptr noundef %33, ptr noundef %37, i32 noundef %38)
  %40 = sext i8 %39 to i32
  br label %41

41:                                               ; preds = %32, %31
  %42 = phi i32 [ 0, %31 ], [ %40, %32 ]
  %43 = trunc i32 %42 to i8
  call void @llvm.lifetime.end.p0(i64 2, ptr %8) #10
  call void @llvm.lifetime.end.p0(i64 8, ptr %7) #10
  ret i8 %43
}