; Function Attrs: nofree norecurse nosync nounwind memory(read, inaccessiblemem: none) uwtable
define hidden signext range(i8 0, 2) i8 @nfaExecMcClellan16_inAccept(ptr noundef readonly captures(none) %0, i32 noundef %1, ptr noundef readonly captures(none) %2) local_unnamed_addr #3 {
  %4 = getelementptr inbounds nuw i8, ptr %0, i64 64
  %5 = getelementptr inbounds nuw i8, ptr %2, i64 16
  %6 = load ptr, ptr %5, align 8
  %7 = load i16, ptr %6, align 2
  %8 = getelementptr inbounds nuw i8, ptr %0, i64 99
  %9 = load i8, ptr %8, align 1
  %10 = icmp eq i8 %9, 1
  br i1 %10, label %11, label %14

11:                                               ; preds = %3
  %12 = getelementptr inbounds nuw i8, ptr %0, i64 94
  %13 = load i16, ptr %12, align 2
  %.not = icmp ult i16 %7, %13
  br i1 %.not, label %14, label %mcclellanHasAccept.exit

14:                                               ; preds = %11, %3
  %15 = getelementptr inbounds nuw i8, ptr %0, i64 76
  %16 = load i32, ptr %15, align 4
  %17 = zext i32 %16 to i64
  %18 = getelementptr inbounds nuw i8, ptr %0, i64 %17
  %19 = zext i16 %7 to i64
  %20 = getelementptr inbounds nuw %struct.mstate_aux, ptr %18, i64 %19
  %.val = load i32, ptr %20, align 4
  %.not.i = icmp eq i32 %.val, 0
  br i1 %.not.i, label %mcclellanHasAccept.exit, label %21

21:                                               ; preds = %14
  %22 = zext i32 %.val to i64
  %23 = getelementptr inbounds nuw i8, ptr %4, i64 %22
  %24 = getelementptr inbounds i8, ptr %23, i64 -64
  %25 = getelementptr inbounds i8, ptr %23, i64 -60
  %26 = load i32, ptr %24, align 4
  %.not131.not.i = icmp eq i32 %26, 0
  br i1 %.not131.not.i, label %mcclellanHasAccept.exit, label %.lr.ph.preheader.i

.lr.ph.preheader.i:                               ; preds = %21
  %wide.trip.count.i = zext i32 %26 to i64
  br label %.lr.ph.i

27:                                               ; preds = %.lr.ph.i
  %indvars.iv.next.i = add nuw nsw i64 %indvars.iv.i, 1
  %exitcond.not.i = icmp eq i64 %indvars.iv.next.i, %wide.trip.count.i
  br i1 %exitcond.not.i, label %mcclellanHasAccept.exit, label %.lr.ph.i

.lr.ph.i:                                         ; preds = %27, %.lr.ph.preheader.i
  %indvars.iv.i = phi i64 [ 0, %.lr.ph.preheader.i ], [ %indvars.iv.next.i, %27 ]
  %28 = getelementptr inbounds nuw [0 x i32], ptr %25, i64 0, i64 %indvars.iv.i
  %29 = load i32, ptr %28, align 4
  %30 = icmp eq i32 %29, %1
  br i1 %30, label %mcclellanHasAccept.exit, label %27

mcclellanHasAccept.exit:                          ; preds = %.lr.ph.i, %27, %21, %14, %11
  %31 = phi i8 [ 0, %11 ], [ 0, %14 ], [ 0, %21 ], [ 0, %27 ], [ 1, %.lr.ph.i ]
  ret i8 %31
}